; Function Attrs: nounwind uwtable
define noalias noundef nonnull ptr @l_Std_Time_PlainDate_subDays(ptr noundef %0, ptr noundef %1) local_unnamed_addr #0 {
  %3 = ptrtoint ptr %1 to i64
  %4 = and i64 %3, 1
  %.not.i15 = icmp eq i64 %4, 0
  br i1 %.not.i15, label %18, label %5, !prof !8

5:                                                ; preds = %2
  %6 = shl i64 %3, 31
  %7 = ashr i64 %6, 32
  %8 = sub nsw i64 0, %7
  %9 = add nsw i64 %7, 2147483647
  %10 = icmp ult i64 %9, 4294967296
  br i1 %10, label %11, label %16, !prof !14

11:                                               ; preds = %5
  %12 = shl nsw i64 %8, 1
  %13 = and i64 %12, 8589934590
  %14 = or disjoint i64 %13, 1
  %15 = inttoptr i64 %14 to ptr
  br label %lean_int_neg.exit

16:                                               ; preds = %5
  %17 = tail call ptr @lean_big_int64_to_int(i64 noundef range(i64 -4611686016279904256, 4611686018427387905) %8) #5
  br label %lean_int_neg.exit

18:                                               ; preds = %2
  %19 = tail call ptr @lean_int_big_neg(ptr noundef %1) #5
  br label %lean_int_neg.exit

lean_int_neg.exit:                                ; preds = %11, %16, %18
  %.0.i = phi ptr [ %19, %18 ], [ %15, %11 ], [ %17, %16 ]
  %20 = tail call ptr @l_Std_Time_PlainDate_toDaysSinceUNIXEpoch(ptr noundef %0)
  %21 = ptrtoint ptr %20 to i64
  %22 = and i64 %21, 1
  %.not.i16 = icmp eq i64 %22, 0
  %.pre22 = ptrtoint ptr %.0.i to i64
  %.pre = and i64 %.pre22, 1
  %23 = icmp eq i64 %.pre, 0
  br i1 %.not.i16, label %lean_int_add.exit, label %24, !prof !8

24:                                               ; preds = %lean_int_neg.exit
  br i1 %23, label %lean_int_add.exit.thread26, label %26, !prof !8

lean_int_add.exit.thread26:                       ; preds = %24
  %25 = tail call ptr @lean_int_big_add(ptr noundef %20, ptr noundef %.0.i) #5
  br label %42

26:                                               ; preds = %24
  %27 = shl i64 %21, 31
  %28 = ashr i64 %27, 32
  %29 = shl i64 %.pre22, 31
  %30 = ashr i64 %29, 32
  %31 = add nsw i64 %28, %30
  %32 = add nsw i64 %31, 2147483648
  %33 = icmp ult i64 %32, 4294967296
  br i1 %33, label %34, label %39, !prof !14

34:                                               ; preds = %26
  %35 = shl nsw i64 %31, 1
  %36 = and i64 %35, 8589934590
  %37 = or disjoint i64 %36, 1
  %38 = inttoptr i64 %37 to ptr
  br label %lean_dec.exit9

39:                                               ; preds = %26
  %40 = tail call ptr @lean_big_int64_to_int(i64 noundef range(i64 -4611686016279904256, 4611686018427387905) %31) #5
  br label %lean_dec.exit9

lean_int_add.exit:                                ; preds = %lean_int_neg.exit
  %41 = tail call ptr @lean_int_big_add(ptr noundef %20, ptr noundef %.0.i) #5
  br i1 %23, label %42, label %lean_dec.exit10.thread

42:                                               ; preds = %lean_int_add.exit.thread26, %lean_int_add.exit
  %43 = phi ptr [ %25, %lean_int_add.exit.thread26 ], [ %41, %lean_int_add.exit ]
  %44 = load i32, ptr %.0.i, align 4, !tbaa !9
  %45 = icmp sgt i32 %44, 1
  br i1 %45, label %46, label %48, !prof !14

46:                                               ; preds = %42
  %47 = add nsw i32 %44, -1
  store i32 %47, ptr %.0.i, align 4, !tbaa !9
  br label %lean_dec.exit10

48:                                               ; preds = %42
  %.not.i = icmp eq i32 %44, 0
  br i1 %.not.i, label %lean_dec.exit10, label %49

49:                                               ; preds = %48
  tail call void @lean_dec_ref_cold(ptr noundef nonnull %.0.i) #5
  br label %lean_dec.exit10

lean_dec.exit10:                                  ; preds = %49, %48, %46
  br i1 %.not.i16, label %lean_dec.exit10.thread, label %lean_dec.exit9

lean_dec.exit10.thread:                           ; preds = %lean_int_add.exit, %lean_dec.exit10
  %.0.i172530 = phi ptr [ %43, %lean_dec.exit10 ], [ %41, %lean_int_add.exit ]
  %50 = load i32, ptr %20, align 4, !tbaa !9
  %51 = icmp sgt i32 %50, 1
  br i1 %51, label %52, label %54, !prof !14

52:                                               ; preds = %lean_dec.exit10.thread
  %53 = add nsw i32 %50, -1
  store i32 %53, ptr %20, align 4, !tbaa !9
  br label %lean_dec.exit9

54:                                               ; preds = %lean_dec.exit10.thread
  %.not.i11 = icmp eq i32 %50, 0
  br i1 %.not.i11, label %lean_dec.exit9, label %55

55:                                               ; preds = %54
  tail call void @lean_dec_ref_cold(ptr noundef nonnull %20) #5
  br label %lean_dec.exit9

lean_dec.exit9:                                   ; preds = %34, %39, %55, %54, %52, %lean_dec.exit10
  %.0.i172529 = phi ptr [ %.0.i172530, %55 ], [ %.0.i172530, %54 ], [ %.0.i172530, %52 ], [ %43, %lean_dec.exit10 ], [ %40, %39 ], [ %38, %34 ]
  %56 = tail call ptr @l_Std_Time_PlainDate_ofDaysSinceUNIXEpoch(ptr noundef %.0.i172529)
  %57 = ptrtoint ptr %.0.i172529 to i64
  %58 = and i64 %57, 1
  %.not19 = icmp eq i64 %58, 0
  br i1 %.not19, label %59, label %lean_dec.exit

59:                                               ; preds = %lean_dec.exit9
  %60 = load i32, ptr %.0.i172529, align 4, !tbaa !9
  %61 = icmp sgt i32 %60, 1
  br i1 %61, label %62, label %64, !prof !14

62:                                               ; preds = %59
  %63 = add nsw i32 %60, -1
  store i32 %63, ptr %.0.i172529, align 4, !tbaa !9
  br label %lean_dec.exit

64:                                               ; preds = %59
  %.not.i13 = icmp eq i32 %60, 0
  br i1 %.not.i13, label %lean_dec.exit, label %65

65:                                               ; preds = %64
  tail call void @lean_dec_ref_cold(ptr noundef nonnull %.0.i172529) #5
  br label %lean_dec.exit

lean_dec.exit:                                    ; preds = %65, %64, %62, %lean_dec.exit9
  ret ptr %56
}